; ModuleID = '24/1040.c'
source_filename = "24/1040.c"
target datalayout = "e-m:e-p270:32:32-p271:32:32-p272:64:64-i64:64-f80:128-n8:16:32:64-S128"
target triple = "x86_64-pc-linux-gnu"

@.str = private unnamed_addr constant [4 x i8] c"%s\0A\00", align 1
@.str.1 = private unnamed_addr constant [3 x i8] c"%s\00", align 1

; Function Attrs: noinline nounwind uwtable
define dso_local i32 @main() #0 {
  %1 = alloca i32, align 4
  %2 = alloca [50 x i8], align 16
  %3 = alloca [50 x i8], align 16
  %4 = alloca [1000 x i8], align 16
  %5 = alloca i32, align 4
  %6 = alloca i32, align 4
  %7 = alloca i32, align 4
  %8 = alloca i32, align 4
  %9 = alloca i32, align 4
  %10 = alloca i32, align 4
  %11 = alloca i32, align 4
  %12 = alloca i32, align 4
  %13 = alloca i32, align 4
  store i32 0, i32* %1, align 4
  store i32 0, i32* %7, align 4
  store i32 50, i32* %8, align 4
  store i32 0, i32* %10, align 4
  %14 = getelementptr inbounds [1000 x i8], [1000 x i8]* %4, i64 0, i64 0
  %15 = call i32 (i8*, ...) bitcast (i32 (...)* @gets to i32 (i8*, ...)*)(i8* %14)
  %16 = getelementptr inbounds [1000 x i8], [1000 x i8]* %4, i64 0, i64 0
  %17 = call i64 @strlen(i8* %16) #3
  %18 = trunc i64 %17 to i32
  store i32 %18, i32* %6, align 4
  store i32 0, i32* %5, align 4
  br label %19

19:                                               ; preds = %103, %0
  %20 = load i32, i32* %5, align 4
  %21 = load i32, i32* %6, align 4
  %22 = icmp sle i32 %20, %21
  br i1 %22, label %23, label %106

23:                                               ; preds = %19
  %24 = load i32, i32* %5, align 4
  %25 = sext i32 %24 to i64
  %26 = getelementptr inbounds [1000 x i8], [1000 x i8]* %4, i64 0, i64 %25
  %27 = load i8, i8* %26, align 1
  %28 = sext i8 %27 to i32
  %29 = icmp eq i32 %28, 32
  br i1 %29, label %37, label %30

30:                                               ; preds = %23
  %31 = load i32, i32* %5, align 4
  %32 = sext i32 %31 to i64
  %33 = getelementptr inbounds [1000 x i8], [1000 x i8]* %4, i64 0, i64 %32
  %34 = load i8, i8* %33, align 1
  %35 = sext i8 %34 to i32
  %36 = icmp eq i32 %35, 0
  br i1 %36, label %37, label %102

37:                                               ; preds = %30, %23
  %38 = load i32, i32* %5, align 4
  %39 = load i32, i32* %10, align 4
  %40 = sub nsw i32 %38, %39
  store i32 %40, i32* %9, align 4
  %41 = load i32, i32* %9, align 4
  %42 = load i32, i32* %7, align 4
  %43 = icmp sgt i32 %41, %42
  br i1 %43, label %44, label %68

44:                                               ; preds = %37
  store i32 0, i32* %12, align 4
  %45 = load i32, i32* %10, align 4
  store i32 %45, i32* %11, align 4
  br label %46

46:                                               ; preds = %60, %44
  %47 = load i32, i32* %11, align 4
  %48 = load i32, i32* %5, align 4
  %49 = icmp slt i32 %47, %48
  br i1 %49, label %50, label %63

50:                                               ; preds = %46
  %51 = load i32, i32* %11, align 4
  %52 = sext i32 %51 to i64
  %53 = getelementptr inbounds [1000 x i8], [1000 x i8]* %4, i64 0, i64 %52
  %54 = load i8, i8* %53, align 1
  %55 = load i32, i32* %12, align 4
  %56 = sext i32 %55 to i64
  %57 = getelementptr inbounds [50 x i8], [50 x i8]* %3, i64 0, i64 %56
  store i8 %54, i8* %57, align 1
  %58 = load i32, i32* %12, align 4
  %59 = add nsw i32 %58, 1
  store i32 %59, i32* %12, align 4
  br label %60

60:                                               ; preds = %50
  %61 = load i32, i32* %11, align 4
  %62 = add nsw i32 %61, 1
  store i32 %62, i32* %11, align 4
  br label %46

63:                                               ; preds = %46
  %64 = load i32, i32* %12, align 4
  %65 = sext i32 %64 to i64
  %66 = getelementptr inbounds [50 x i8], [50 x i8]* %3, i64 0, i64 %65
  store i8 0, i8* %66, align 1
  %67 = load i32, i32* %9, align 4
  store i32 %67, i32* %7, align 4
  br label %68

68:                                               ; preds = %63, %37
  %69 = load i32, i32* %9, align 4
  %70 = load i32, i32* %8, align 4
  %71 = icmp slt i32 %69, %70
  br i1 %71, label %72, label %99

72:                                               ; preds = %68
  %73 = load i32, i32* %9, align 4
  %74 = icmp ne i32 %73, 0
  br i1 %74, label %75, label %99

75:                                               ; preds = %72
  store i32 0, i32* %13, align 4
  %76 = load i32, i32* %10, align 4
  store i32 %76, i32* %11, align 4
  br label %77

77:                                               ; preds = %91, %75
  %78 = load i32, i32* %11, align 4
  %79 = load i32, i32* %5, align 4
  %80 = icmp slt i32 %78, %79
  br i1 %80, label %81, label %94

81:                                               ; preds = %77
  %82 = load i32, i32* %11, align 4
  %83 = sext i32 %82 to i64
  %84 = getelementptr inbounds [1000 x i8], [1000 x i8]* %4, i64 0, i64 %83
  %85 = load i8, i8* %84, align 1
  %86 = load i32, i32* %13, align 4
  %87 = sext i32 %86 to i64
  %88 = getelementptr inbounds [50 x i8], [50 x i8]* %2, i64 0, i64 %87
  store i8 %85, i8* %88, align 1
  %89 = load i32, i32* %13, align 4
  %90 = add nsw i32 %89, 1
  store i32 %90, i32* %13, align 4
  br label %91

91:                                               ; preds = %81
  %92 = load i32, i32* %11, align 4
  %93 = add nsw i32 %92, 1
  store i32 %93, i32* %11, align 4
  br label %77

94:                                               ; preds = %77
  %95 = load i32, i32* %13, align 4
  %96 = sext i32 %95 to i64
  %97 = getelementptr inbounds [50 x i8], [50 x i8]* %2, i64 0, i64 %96
  store i8 0, i8* %97, align 1
  %98 = load i32, i32* %9, align 4
  store i32 %98, i32* %8, align 4
  br label %99

99:                                               ; preds = %94, %72, %68
  %100 = load i32, i32* %5, align 4
  %101 = add nsw i32 %100, 1
  store i32 %101, i32* %10, align 4
  br label %102

102:                                              ; preds = %99, %30
  br label %103

103:                                              ; preds = %102
  %104 = load i32, i32* %5, align 4
  %105 = add nsw i32 %104, 1
  store i32 %105, i32* %5, align 4
  br label %19

106:                                              ; preds = %19
  %107 = getelementptr inbounds [50 x i8], [50 x i8]* %3, i64 0, i64 0
  %108 = call i32 (i8*, ...) @printf(i8* getelementptr inbounds ([4 x i8], [4 x i8]* @.str, i64 0, i64 0), i8* %107)
  %109 = getelementptr inbounds [50 x i8], [50 x i8]* %2, i64 0, i64 0
  %110 = call i32 (i8*, ...) @printf(i8* getelementptr inbounds ([3 x i8], [3 x i8]* @.str.1, i64 0, i64 0), i8* %109)
  ret i32 0
}

declare dso_local i32 @gets(...) #1

; Function Attrs: nounwind readonly
declare dso_local i64 @strlen(i8*) #2

declare dso_local i32 @printf(i8*, ...) #1


!llvm.module.flags = !{!0}
!llvm.ident = !{!1}

!0 = !{i32 1, !"wchar_size", i32 4}
!1 = !{!"clang version 10.0.0-4ubuntu1 "}
